target datalayout = "e-m:e-p270:32:32-p271:32:32-p272:64:64-i64:64-i128:128-f80:128-n8:16:32:64-S128"
target triple = "x86_64-pc-linux-gnu"

@id_i_io = internal global i64 0, align 8
@peer_ip_address.rbimpl_id = internal global i64 0, align 8
@.str.281 = private unnamed_addr constant [15 x i8] c"remote_address\00", align 1
@peer_ip_address.rbimpl_id.282 = internal global i64 0, align 8
@.str.283 = private unnamed_addr constant [17 x i8] c"inspect_sockaddr\00", align 1

; Function Attrs: inlinehint nounwind sspstrong willreturn memory(read) uwtable
define internal i64 @rb_intern_const(ptr noundef nonnull %0) #1 {
  %2 = alloca ptr, align 8
  %3 = alloca i64, align 8
  store ptr %0, ptr %2, align 8, !tbaa !16
  call void @llvm.lifetime.start.p0(i64 8, ptr %3) #20
  %4 = load ptr, ptr %2, align 8, !tbaa !16
  %5 = call i64 @strlen(ptr noundef %4) #21
  store i64 %5, ptr %3, align 8, !tbaa !14
  %6 = load ptr, ptr %2, align 8, !tbaa !16
  %7 = load i64, ptr %3, align 8, !tbaa !14
  %8 = call i64 @rb_intern2(ptr noundef %6, i64 noundef %7)
  call void @llvm.lifetime.end.p0(i64 8, ptr %3) #20
  ret i64 %8
}

; Function Attrs: inlinehint nounwind sspstrong memory(argmem: readwrite, inaccessiblemem: readwrite) uwtable
define internal i64 @rbimpl_intern_const(ptr noundef nonnull %0, ptr noundef nonnull %1) #15 {
  %3 = alloca ptr, align 8
  %4 = alloca ptr, align 8
  store ptr %0, ptr %3, align 8, !tbaa !32
  store ptr %1, ptr %4, align 8, !tbaa !16
  br label %5

5:                                                ; preds = %10, %2
  %6 = load ptr, ptr %3, align 8, !tbaa !32
  %7 = load i64, ptr %6, align 8, !tbaa !14
  %8 = icmp ne i64 %7, 0
  %9 = xor i1 %8, true
  br i1 %9, label %10, label %14

10:                                               ; preds = %5
  %11 = load ptr, ptr %4, align 8, !tbaa !16
  %12 = call i64 @rb_intern_const(ptr noundef %11) #21
  %13 = load ptr, ptr %3, align 8, !tbaa !32
  store i64 %12, ptr %13, align 8, !tbaa !14
  br label %5, !llvm.loop !73

14:                                               ; preds = %5
  %15 = load ptr, ptr %3, align 8, !tbaa !32
  %16 = load i64, ptr %15, align 8, !tbaa !14
  ret i64 %16
}

; Function Attrs: nounwind sspstrong uwtable
define internal i64 @peer_ip_address(i64 noundef %0) #0 {
  %2 = alloca i64, align 8
  %3 = alloca i64, align 8
  %4 = alloca i64, align 8
  %5 = alloca i64, align 8
  store i64 %0, ptr %2, align 8, !tbaa !14
  call void @llvm.lifetime.start.p0(i64 8, ptr %3) #20
  %6 = load i64, ptr %2, align 8, !tbaa !14
  %7 = load i64, ptr @id_i_io, align 8, !tbaa !14
  %8 = call i64 @rb_attr_get(i64 noundef %6, i64 noundef %7)
  %9 = call i64 @rbimpl_intern_const(ptr noundef @peer_ip_address.rbimpl_id, ptr noundef @.str.281) #24
  store i64 %9, ptr %4, align 8, !tbaa !14
  %10 = load i64, ptr %4, align 8, !tbaa !14
  %11 = call i64 (i64, i64, i32, ...) @rb_funcall(i64 noundef %8, i64 noundef %10, i32 noundef 0)
  store i64 %11, ptr %3, align 8, !tbaa !14
  %12 = load i64, ptr %3, align 8, !tbaa !14
  %13 = call i64 @rbimpl_intern_const(ptr noundef @peer_ip_address.rbimpl_id.282, ptr noundef @.str.283) #24
  store i64 %13, ptr %5, align 8, !tbaa !14
  %14 = load i64, ptr %5, align 8, !tbaa !14
  %15 = call i64 (i64, i64, i32, ...) @rb_funcall(i64 noundef %12, i64 noundef %14, i32 noundef 0)
  call void @llvm.lifetime.end.p0(i64 8, ptr %3) #20
  ret i64 %15
}