; Function Attrs: nounwind sspstrong uwtable
define internal i64 @peer_ip_address(i64 noundef %0) #0 {
  %2 = load i64, ptr @id_i_io, align 8, !tbaa !10
  %3 = tail call i64 @rb_attr_get(i64 noundef %0, i64 noundef %2) #9
  %.pr.i = load i64, ptr @peer_ip_address.rbimpl_id, align 8, !tbaa !10
  %.not4.i = icmp eq i64 %.pr.i, 0
  br i1 %.not4.i, label %.lr.ph.i, label %rbimpl_intern_const.exit

.lr.ph.i:                                         ; preds = %1, %.lr.ph.i
  %4 = tail call i64 @rb_intern2(ptr noundef nonnull @.str.281, i64 noundef 14) #9
  store i64 %4, ptr @peer_ip_address.rbimpl_id, align 8, !tbaa !10
  %.not.i = icmp eq i64 %4, 0
  br i1 %.not.i, label %.lr.ph.i, label %rbimpl_intern_const.exit, !llvm.loop !29

rbimpl_intern_const.exit:                         ; preds = %.lr.ph.i, %1
  %.lcssa.i = phi i64 [ %.pr.i, %1 ], [ %4, %.lr.ph.i ]
  %5 = tail call i64 (i64, i64, i32, ...) @rb_funcall(i64 noundef %3, i64 noundef %.lcssa.i, i32 noundef 0) #9
  %.pr.i4 = load i64, ptr @peer_ip_address.rbimpl_id.282, align 8, !tbaa !10
  %.not4.i5 = icmp eq i64 %.pr.i4, 0
  br i1 %.not4.i5, label %.lr.ph.i7, label %rbimpl_intern_const.exit9

.lr.ph.i7:                                        ; preds = %rbimpl_intern_const.exit, %.lr.ph.i7
  %6 = tail call i64 @rb_intern2(ptr noundef nonnull @.str.283, i64 noundef 16) #9
  store i64 %6, ptr @peer_ip_address.rbimpl_id.282, align 8, !tbaa !10
  %.not.i8 = icmp eq i64 %6, 0
  br i1 %.not.i8, label %.lr.ph.i7, label %rbimpl_intern_const.exit9, !llvm.loop !29

rbimpl_intern_const.exit9:                        ; preds = %.lr.ph.i7, %rbimpl_intern_const.exit
  %.lcssa.i6 = phi i64 [ %.pr.i4, %rbimpl_intern_const.exit ], [ %6, %.lr.ph.i7 ]
  %7 = tail call i64 (i64, i64, i32, ...) @rb_funcall(i64 noundef %5, i64 noundef %.lcssa.i6, i32 noundef 0) #9
  ret i64 %7
}